target datalayout = "e-m:e-p270:32:32-p271:32:32-p272:64:64-i64:64-i128:128-f80:128-n8:16:32:64-S128"
target triple = "x86_64-pc-linux-gnu"

%"class.std::__cxx11::basic_string" = type { %"struct.std::__cxx11::basic_string<char>::_Alloc_hider", i64, %union.anon }
%"struct.std::__cxx11::basic_string<char>::_Alloc_hider" = type { ptr }
%union.anon = type { i64, [8 x i8] }
%"class.duckdb::TextTreeRenderer" = type { %"class.duckdb::TreeRenderer", %"struct.duckdb::TextTreeRendererConfig" }
%"class.duckdb::TreeRenderer" = type { ptr }
%"struct.duckdb::TextTreeRendererConfig" = type { i64, i64, i64, i64, i8, ptr, ptr, ptr, ptr, ptr, ptr, ptr, ptr, ptr, ptr, ptr }

@.str.22 = private unnamed_addr constant [4 x i8] c"\E2\94\8C\00", align 1
@.str.23 = private unnamed_addr constant [4 x i8] c"\E2\94\90\00", align 1
@.str.24 = private unnamed_addr constant [4 x i8] c"\E2\94\94\00", align 1
@.str.25 = private unnamed_addr constant [4 x i8] c"\E2\94\98\00", align 1
@.str.26 = private unnamed_addr constant [4 x i8] c"\E2\94\BC\00", align 1
@.str.27 = private unnamed_addr constant [4 x i8] c"\E2\94\AC\00", align 1
@.str.28 = private unnamed_addr constant [4 x i8] c"\E2\94\9C\00", align 1
@.str.29 = private unnamed_addr constant [4 x i8] c"\E2\94\A4\00", align 1
@.str.30 = private unnamed_addr constant [4 x i8] c"\E2\94\B4\00", align 1
@.str.31 = private unnamed_addr constant [4 x i8] c"\E2\94\82\00", align 1
@.str.32 = private unnamed_addr constant [4 x i8] c"\E2\94\80\00", align 1
@_ZTVN6duckdb16TextTreeRendererE = external unnamed_addr constant { [7 x ptr] }, align 8

; Function Attrs: mustprogress nounwind uwtable
define linkonce_odr void @_ZNSt15__new_allocatorIcE10deallocateEPcm(ptr noundef nonnull align 1 dereferenceable(1) %0, ptr noundef %1, i64 noundef %2) #1 comdat align 2 {
  %4 = alloca ptr, align 8
  %5 = alloca ptr, align 8
  %6 = alloca i64, align 8
  store ptr %0, ptr %4, align 8, !tbaa !343
  store ptr %1, ptr %5, align 8, !tbaa !341
  store i64 %2, ptr %6, align 8, !tbaa !150
  %7 = load ptr, ptr %5, align 8, !tbaa !341
  call void @_ZdlPv(ptr noundef %7) #28
  ret void
}

; Function Attrs: mustprogress nounwind uwtable
define linkonce_odr noundef ptr @_ZNSt19__ptr_traits_ptr_toIPKcS0_Lb0EE10pointer_toERS0_(ptr noundef nonnull align 1 dereferenceable(1) %0) #1 comdat align 2 {
  %2 = alloca ptr, align 8
  store ptr %0, ptr %2, align 8, !tbaa !341
  %3 = load ptr, ptr %2, align 8, !tbaa !341
  ret ptr %3
}

; Function Attrs: mustprogress uwtable
define linkonce_odr void @_ZNSt16allocator_traitsISaIcEE10deallocateERS0_Pcm(ptr noundef nonnull align 1 dereferenceable(1) %0, ptr noundef %1, i64 noundef %2) #0 comdat align 2 {
  %4 = alloca ptr, align 8
  %5 = alloca ptr, align 8
  %6 = alloca i64, align 8
  store ptr %0, ptr %4, align 8, !tbaa !337
  store ptr %1, ptr %5, align 8, !tbaa !341
  store i64 %2, ptr %6, align 8, !tbaa !150
  %7 = load ptr, ptr %4, align 8, !tbaa !337
  %8 = load ptr, ptr %5, align 8, !tbaa !341
  %9 = load i64, ptr %6, align 8, !tbaa !150
  call void @_ZNSt15__new_allocatorIcE10deallocateEPcm(ptr noundef nonnull align 1 dereferenceable(1) %7, ptr noundef %8, i64 noundef %9)
  ret void
}

; Function Attrs: mustprogress nounwind uwtable
define available_externally noundef nonnull align 1 dereferenceable(1) ptr @_ZNSt7__cxx1112basic_stringIcSt11char_traitsIcESaIcEE16_M_get_allocatorEv(ptr noundef nonnull align 8 dereferenceable(32) %0) #1 align 2 {
  %2 = alloca ptr, align 8
  store ptr %0, ptr %2, align 8, !tbaa !339
  %3 = load ptr, ptr %2, align 8
  %4 = getelementptr inbounds nuw %"class.std::__cxx11::basic_string", ptr %3, i32 0, i32 0
  ret ptr %4
}

; Function Attrs: mustprogress nounwind uwtable
define available_externally noundef ptr @_ZNKSt7__cxx1112basic_stringIcSt11char_traitsIcESaIcEE13_M_local_dataEv(ptr noundef nonnull align 8 dereferenceable(32) %0) #1 align 2 {
  %2 = alloca ptr, align 8
  store ptr %0, ptr %2, align 8, !tbaa !339
  %3 = load ptr, ptr %2, align 8
  %4 = getelementptr inbounds nuw %"class.std::__cxx11::basic_string", ptr %3, i32 0, i32 2
  %5 = getelementptr inbounds [16 x i8], ptr %4, i64 0, i64 0
  %6 = call noundef ptr @_ZNSt19__ptr_traits_ptr_toIPKcS0_Lb0EE10pointer_toERS0_(ptr noundef nonnull align 1 dereferenceable(1) %5) #24
  ret ptr %6
}

; Function Attrs: mustprogress nounwind uwtable
define available_externally noundef ptr @_ZNKSt7__cxx1112basic_stringIcSt11char_traitsIcESaIcEE7_M_dataEv(ptr noundef nonnull align 8 dereferenceable(32) %0) #1 align 2 {
  %2 = alloca ptr, align 8
  store ptr %0, ptr %2, align 8, !tbaa !339
  %3 = load ptr, ptr %2, align 8
  %4 = getelementptr inbounds nuw %"class.std::__cxx11::basic_string", ptr %3, i32 0, i32 0
  %5 = getelementptr inbounds nuw %"struct.std::__cxx11::basic_string<char>::_Alloc_hider", ptr %4, i32 0, i32 0
  %6 = load ptr, ptr %5, align 8, !tbaa !1861
  ret ptr %6
}

; Function Attrs: mustprogress nounwind uwtable
define available_externally void @_ZNSt7__cxx1112basic_stringIcSt11char_traitsIcESaIcEE10_M_destroyEm(ptr noundef nonnull align 8 dereferenceable(32) %0, i64 noundef %1) #1 align 2 personality ptr @__gxx_personality_v0 {
  %3 = alloca ptr, align 8
  %4 = alloca i64, align 8
  %5 = alloca ptr, align 8
  %6 = alloca i32, align 4
  store ptr %0, ptr %3, align 8, !tbaa !339
  store i64 %1, ptr %4, align 8, !tbaa !150
  %7 = load ptr, ptr %3, align 8
  %8 = call noundef nonnull align 1 dereferenceable(1) ptr @_ZNSt7__cxx1112basic_stringIcSt11char_traitsIcESaIcEE16_M_get_allocatorEv(ptr noundef nonnull align 8 dereferenceable(32) %7)
  %9 = call noundef ptr @_ZNKSt7__cxx1112basic_stringIcSt11char_traitsIcESaIcEE7_M_dataEv(ptr noundef nonnull align 8 dereferenceable(32) %7)
  %10 = load i64, ptr %4, align 8, !tbaa !150
  %11 = add i64 %10, 1
  invoke void @_ZNSt16allocator_traitsISaIcEE10deallocateERS0_Pcm(ptr noundef nonnull align 1 dereferenceable(1) %8, ptr noundef %9, i64 noundef %11)
          to label %12 unwind label %13

12:                                               ; preds = %2
  ret void

13:                                               ; preds = %2
  %14 = landingpad { ptr, i32 }
          filter [0 x ptr] zeroinitializer
  %15 = extractvalue { ptr, i32 } %14, 0
  store ptr %15, ptr %5, align 8
  %16 = extractvalue { ptr, i32 } %14, 1
  store i32 %16, ptr %6, align 4
  br label %17

17:                                               ; preds = %13
  %18 = load ptr, ptr %5, align 8
  call void @__cxa_call_unexpected(ptr %18) #26
  unreachable
}

; Function Attrs: mustprogress uwtable
define available_externally noundef zeroext i1 @_ZNKSt7__cxx1112basic_stringIcSt11char_traitsIcESaIcEE11_M_is_localEv(ptr noundef nonnull align 8 dereferenceable(32) %0) #0 align 2 {
  %2 = alloca i1, align 1
  %3 = alloca ptr, align 8
  store ptr %0, ptr %3, align 8, !tbaa !339
  %4 = load ptr, ptr %3, align 8
  %5 = call noundef ptr @_ZNKSt7__cxx1112basic_stringIcSt11char_traitsIcESaIcEE7_M_dataEv(ptr noundef nonnull align 8 dereferenceable(32) %4)
  %6 = call noundef ptr @_ZNKSt7__cxx1112basic_stringIcSt11char_traitsIcESaIcEE13_M_local_dataEv(ptr noundef nonnull align 8 dereferenceable(32) %4)
  %7 = icmp eq ptr %5, %6
  br i1 %7, label %8, label %14

8:                                                ; preds = %1
  %9 = getelementptr inbounds nuw %"class.std::__cxx11::basic_string", ptr %4, i32 0, i32 1
  %10 = load i64, ptr %9, align 8, !tbaa !1860
  %11 = icmp ugt i64 %10, 15
  br i1 %11, label %12, label %13

12:                                               ; preds = %8
  unreachable

13:                                               ; preds = %8
  store i1 true, ptr %2, align 1
  br label %15

14:                                               ; preds = %1
  store i1 false, ptr %2, align 1
  br label %15

15:                                               ; preds = %14, %13
  %16 = load i1, ptr %2, align 1
  ret i1 %16
}

; Function Attrs: mustprogress nounwind uwtable
define linkonce_odr void @_ZN6duckdb12TreeRendererC2Ev(ptr noundef nonnull align 8 dereferenceable(8) %0) unnamed_addr #1 comdat align 2 {
  %2 = alloca ptr, align 8
  store ptr %0, ptr %2, align 8, !tbaa !1032
  %3 = load ptr, ptr %2, align 8
  store ptr getelementptr inbounds inrange(-16, 40) ({ [7 x ptr] }, ptr @_ZTVN6duckdb12TreeRendererE, i32 0, i32 0, i32 2), ptr %3, align 8, !tbaa !57
  ret void
}

; Function Attrs: noinline noreturn nounwind uwtable
define linkonce_odr hidden void @__clang_call_terminate(ptr noundef %0) #6 comdat {
  %2 = call ptr @__cxa_begin_catch(ptr %0) #24
  call void @_ZSt9terminatev() #25
  unreachable
}

; Function Attrs: mustprogress nounwind uwtable
define linkonce_odr void @_ZNSt15__new_allocatorIcED2Ev(ptr noundef nonnull align 1 dereferenceable(1) %0) unnamed_addr #1 comdat align 2 {
  %2 = alloca ptr, align 8
  store ptr %0, ptr %2, align 8, !tbaa !343
  ret void
}

; Function Attrs: mustprogress uwtable
define available_externally void @_ZNSt7__cxx1112basic_stringIcSt11char_traitsIcESaIcEE10_M_disposeEv(ptr noundef nonnull align 8 dereferenceable(32) %0) #0 align 2 {
  %2 = alloca ptr, align 8
  store ptr %0, ptr %2, align 8, !tbaa !339
  %3 = load ptr, ptr %2, align 8
  %4 = call noundef zeroext i1 @_ZNKSt7__cxx1112basic_stringIcSt11char_traitsIcESaIcEE11_M_is_localEv(ptr noundef nonnull align 8 dereferenceable(32) %3)
  br i1 %4, label %8, label %5

5:                                                ; preds = %1
  %6 = getelementptr inbounds nuw %"class.std::__cxx11::basic_string", ptr %3, i32 0, i32 2
  %7 = load i64, ptr %6, align 8, !tbaa !1537
  call void @_ZNSt7__cxx1112basic_stringIcSt11char_traitsIcESaIcEE10_M_destroyEm(ptr noundef nonnull align 8 dereferenceable(32) %3, i64 noundef %7) #24
  br label %8

8:                                                ; preds = %5, %1
  ret void
}

; Function Attrs: mustprogress nounwind uwtable
define linkonce_odr void @_ZN6duckdb12TreeRendererD2Ev(ptr noundef nonnull align 8 dereferenceable(8) %0) unnamed_addr #1 comdat align 2 {
  %2 = alloca ptr, align 8
  store ptr %0, ptr %2, align 8, !tbaa !1032
  ret void
}

; Function Attrs: mustprogress uwtable
define linkonce_odr void @_ZN6duckdb16TextTreeRendererC2ENS_22TextTreeRendererConfigE(ptr noundef nonnull align 8 dereferenceable(136) %0, ptr noundef byval(%"struct.duckdb::TextTreeRendererConfig") align 8 %1) unnamed_addr #0 comdat align 2 {
  %3 = alloca ptr, align 8
  store ptr %0, ptr %3, align 8, !tbaa !1029
  %4 = load ptr, ptr %3, align 8
  call void @_ZN6duckdb12TreeRendererC2Ev(ptr noundef nonnull align 8 dereferenceable(8) %4)
  store ptr getelementptr inbounds inrange(-16, 40) ({ [7 x ptr] }, ptr @_ZTVN6duckdb16TextTreeRendererE, i32 0, i32 0, i32 2), ptr %4, align 8, !tbaa !57
  %5 = getelementptr inbounds nuw %"class.duckdb::TextTreeRenderer", ptr %4, i32 0, i32 1
  call void @llvm.memcpy.p0.p0.i64(ptr align 8 %5, ptr align 8 %1, i64 128, i1 false), !tbaa.struct !1031
  ret void
}

; Function Attrs: inlinehint mustprogress nounwind uwtable
define linkonce_odr void @_ZN6duckdb22TextTreeRendererConfigC2Ev(ptr noundef nonnull align 8 dereferenceable(128) %0) unnamed_addr #3 comdat align 2 {
  %2 = alloca ptr, align 8
  store ptr %0, ptr %2, align 8, !tbaa !1010
  %3 = load ptr, ptr %2, align 8
  %4 = getelementptr inbounds nuw %"struct.duckdb::TextTreeRendererConfig", ptr %3, i32 0, i32 0
  store i64 240, ptr %4, align 8, !tbaa !1012
  %5 = getelementptr inbounds nuw %"struct.duckdb::TextTreeRendererConfig", ptr %3, i32 0, i32 1
  store i64 29, ptr %5, align 8, !tbaa !1014
  %6 = getelementptr inbounds nuw %"struct.duckdb::TextTreeRendererConfig", ptr %3, i32 0, i32 2
  store i64 15, ptr %6, align 8, !tbaa !1015
  %7 = getelementptr inbounds nuw %"struct.duckdb::TextTreeRendererConfig", ptr %3, i32 0, i32 3
  store i64 30, ptr %7, align 8, !tbaa !1016
  %8 = getelementptr inbounds nuw %"struct.duckdb::TextTreeRendererConfig", ptr %3, i32 0, i32 4
  store i8 0, ptr %8, align 8, !tbaa !1017
  %9 = getelementptr inbounds nuw %"struct.duckdb::TextTreeRendererConfig", ptr %3, i32 0, i32 5
  store ptr @.str.22, ptr %9, align 8, !tbaa !1018
  %10 = getelementptr inbounds nuw %"struct.duckdb::TextTreeRendererConfig", ptr %3, i32 0, i32 6
  store ptr @.str.23, ptr %10, align 8, !tbaa !1019
  %11 = getelementptr inbounds nuw %"struct.duckdb::TextTreeRendererConfig", ptr %3, i32 0, i32 7
  store ptr @.str.24, ptr %11, align 8, !tbaa !1020
  %12 = getelementptr inbounds nuw %"struct.duckdb::TextTreeRendererConfig", ptr %3, i32 0, i32 8
  store ptr @.str.25, ptr %12, align 8, !tbaa !1021
  %13 = getelementptr inbounds nuw %"struct.duckdb::TextTreeRendererConfig", ptr %3, i32 0, i32 9
  store ptr @.str.26, ptr %13, align 8, !tbaa !1022
  %14 = getelementptr inbounds nuw %"struct.duckdb::TextTreeRendererConfig", ptr %3, i32 0, i32 10
  store ptr @.str.27, ptr %14, align 8, !tbaa !1023
  %15 = getelementptr inbounds nuw %"struct.duckdb::TextTreeRendererConfig", ptr %3, i32 0, i32 11
  store ptr @.str.28, ptr %15, align 8, !tbaa !1024
  %16 = getelementptr inbounds nuw %"struct.duckdb::TextTreeRendererConfig", ptr %3, i32 0, i32 12
  store ptr @.str.29, ptr %16, align 8, !tbaa !1025
  %17 = getelementptr inbounds nuw %"struct.duckdb::TextTreeRendererConfig", ptr %3, i32 0, i32 13
  store ptr @.str.30, ptr %17, align 8, !tbaa !1026
  %18 = getelementptr inbounds nuw %"struct.duckdb::TextTreeRendererConfig", ptr %3, i32 0, i32 14
  store ptr @.str.31, ptr %18, align 8, !tbaa !1027
  %19 = getelementptr inbounds nuw %"struct.duckdb::TextTreeRendererConfig", ptr %3, i32 0, i32 15
  store ptr @.str.32, ptr %19, align 8, !tbaa !1028
  ret void
}

; Function Attrs: mustprogress nounwind uwtable
define available_externally void @_ZNSt7__cxx1112basic_stringIcSt11char_traitsIcESaIcEED2Ev(ptr noundef nonnull align 8 dereferenceable(32) %0) unnamed_addr #1 align 2 personality ptr @__gxx_personality_v0 {
  %2 = alloca ptr, align 8
  store ptr %0, ptr %2, align 8, !tbaa !339
  %3 = load ptr, ptr %2, align 8
  invoke void @_ZNSt7__cxx1112basic_stringIcSt11char_traitsIcESaIcEE10_M_disposeEv(ptr noundef nonnull align 8 dereferenceable(32) %3)
          to label %4 unwind label %6

4:                                                ; preds = %1
  %5 = getelementptr inbounds nuw %"class.std::__cxx11::basic_string", ptr %3, i32 0, i32 0
  call void @_ZNSt15__new_allocatorIcED2Ev(ptr noundef nonnull align 8 dereferenceable(8) %5) #24
  ret void

6:                                                ; preds = %1
  %7 = landingpad { ptr, i32 }
          catch ptr null
  %8 = extractvalue { ptr, i32 } %7, 0
  call void @__clang_call_terminate(ptr %8) #25
  unreachable
}

; Function Attrs: mustprogress uwtable
define void @_ZNK6duckdb8Pipeline8ToStringB5cxx11Ev(ptr dead_on_unwind noalias writable sret(%"class.std::__cxx11::basic_string") align 8 %0, ptr noundef nonnull align 8 dereferenceable(224) %1) #0 align 2 personality ptr @__gxx_personality_v0 {
  %3 = alloca ptr, align 8
  %4 = alloca ptr, align 8
  %5 = alloca %"class.duckdb::TextTreeRenderer", align 8
  %6 = alloca %"struct.duckdb::TextTreeRendererConfig", align 8
  %7 = alloca ptr, align 8
  %8 = alloca i32, align 4
  store ptr %0, ptr %3, align 8
  store ptr %1, ptr %4, align 8, !tbaa !59
  %9 = load ptr, ptr %4, align 8
  call void @llvm.lifetime.start.p0(i64 136, ptr %5) #24
  call void @llvm.memset.p0.i64(ptr align 8 %6, i8 0, i64 128, i1 false)
  call void @_ZN6duckdb22TextTreeRendererConfigC2Ev(ptr noundef nonnull align 8 dereferenceable(128) %6) #24
  call void @_ZN6duckdb16TextTreeRendererC2ENS_22TextTreeRendererConfigE(ptr noundef nonnull align 8 dereferenceable(136) %5, ptr noundef byval(%"struct.duckdb::TextTreeRendererConfig") align 8 %6)
  invoke void @_ZN6duckdb16TextTreeRenderer8ToStringB5cxx11ERKNS_8PipelineE(ptr dead_on_unwind writable sret(%"class.std::__cxx11::basic_string") align 8 %0, ptr noundef nonnull align 8 dereferenceable(136) %5, ptr noundef nonnull align 8 dereferenceable(224) %9)
          to label %10 unwind label %11

10:                                               ; preds = %2
  call void @_ZN6duckdb12TreeRendererD2Ev(ptr noundef nonnull align 8 dereferenceable(136) %5) #24
  call void @llvm.lifetime.end.p0(i64 136, ptr %5) #24
  ret void

11:                                               ; preds = %2
  %12 = landingpad { ptr, i32 }
          cleanup
  %13 = extractvalue { ptr, i32 } %12, 0
  store ptr %13, ptr %7, align 8
  %14 = extractvalue { ptr, i32 } %12, 1
  store i32 %14, ptr %8, align 4
  call void @_ZN6duckdb12TreeRendererD2Ev(ptr noundef nonnull align 8 dereferenceable(136) %5) #24
  call void @llvm.lifetime.end.p0(i64 136, ptr %5) #24
  br label %15

15:                                               ; preds = %11
  %16 = load ptr, ptr %7, align 8
  %17 = load i32, ptr %8, align 4
  %18 = insertvalue { ptr, i32 } poison, ptr %16, 0
  %19 = insertvalue { ptr, i32 } %18, i32 %17, 1
  resume { ptr, i32 } %19
}

; Function Attrs: mustprogress uwtable
define void @_ZNK6duckdb8Pipeline5PrintEv(ptr noundef nonnull align 8 dereferenceable(224) %0) #0 align 2 personality ptr @__gxx_personality_v0 {
  %2 = alloca ptr, align 8
  %3 = alloca %"class.std::__cxx11::basic_string", align 8
  %4 = alloca ptr, align 8
  %5 = alloca i32, align 4
  store ptr %0, ptr %2, align 8, !tbaa !59
  %6 = load ptr, ptr %2, align 8
  call void @llvm.lifetime.start.p0(i64 32, ptr %3) #24
  call void @_ZNK6duckdb8Pipeline8ToStringB5cxx11Ev(ptr dead_on_unwind writable sret(%"class.std::__cxx11::basic_string") align 8 %3, ptr noundef nonnull align 8 dereferenceable(224) %6)
  invoke void @_ZN6duckdb7Printer5PrintERKNSt7__cxx1112basic_stringIcSt11char_traitsIcESaIcEEE(ptr noundef nonnull align 8 dereferenceable(32) %3)
          to label %7 unwind label %8

7:                                                ; preds = %1
  call void @_ZNSt7__cxx1112basic_stringIcSt11char_traitsIcESaIcEED2Ev(ptr noundef nonnull align 8 dereferenceable(32) %3) #24
  call void @llvm.lifetime.end.p0(i64 32, ptr %3) #24
  ret void

8:                                                ; preds = %1
  %9 = landingpad { ptr, i32 }
          cleanup
  %10 = extractvalue { ptr, i32 } %9, 0
  store ptr %10, ptr %4, align 8
  %11 = extractvalue { ptr, i32 } %9, 1
  store i32 %11, ptr %5, align 4
  call void @_ZNSt7__cxx1112basic_stringIcSt11char_traitsIcESaIcEED2Ev(ptr noundef nonnull align 8 dereferenceable(32) %3) #24
  call void @llvm.lifetime.end.p0(i64 32, ptr %3) #24
  br label %12

12:                                               ; preds = %8
  %13 = load ptr, ptr %4, align 8
  %14 = load i32, ptr %5, align 4
  %15 = insertvalue { ptr, i32 } poison, ptr %13, 0
  %16 = insertvalue { ptr, i32 } %15, i32 %14, 1
  resume { ptr, i32 } %16
}