; Function Attrs: mustprogress uwtable
define void @_ZNK6duckdb8Pipeline5PrintEv(ptr noundef nonnull align 8 dereferenceable(224) %0) local_unnamed_addr #0 align 2 personality ptr @__gxx_personality_v0 {
  %2 = alloca %"class.duckdb::TextTreeRenderer", align 8
  %3 = alloca %"class.std::__cxx11::basic_string", align 8
  call void @llvm.lifetime.start.p0(i64 32, ptr nonnull %3) #35
  call void @llvm.lifetime.start.p0(i64 136, ptr nonnull %2) #35, !noalias !971
  %.sroa.88.0..sroa_idx.i = getelementptr inbounds nuw i8, ptr %2, i64 41
  call void @llvm.memset.p0.i64(ptr noundef nonnull align 1 dereferenceable(7) %.sroa.88.0..sroa_idx.i, i8 0, i64 7, i1 false), !noalias !971
  store ptr getelementptr inbounds nuw inrange(-16, 40) (i8, ptr @_ZTVN6duckdb16TextTreeRendererE, i64 16), ptr %2, align 8, !tbaa !54, !noalias !971
  %4 = getelementptr inbounds nuw i8, ptr %2, i64 8
  store i64 240, ptr %4, align 8, !tbaa !238, !noalias !971
  %.sroa.44.0..sroa_idx.i = getelementptr inbounds nuw i8, ptr %2, i64 16
  store i64 29, ptr %.sroa.44.0..sroa_idx.i, align 8, !tbaa !238, !noalias !971
  %.sroa.55.0..sroa_idx.i = getelementptr inbounds nuw i8, ptr %2, i64 24
  store i64 15, ptr %.sroa.55.0..sroa_idx.i, align 8, !tbaa !238, !noalias !971
  %.sroa.66.0..sroa_idx.i = getelementptr inbounds nuw i8, ptr %2, i64 32
  store i64 30, ptr %.sroa.66.0..sroa_idx.i, align 8, !tbaa !238, !noalias !971
  %.sroa.77.0..sroa_idx.i = getelementptr inbounds nuw i8, ptr %2, i64 40
  store i8 0, ptr %.sroa.77.0..sroa_idx.i, align 8, !tbaa !363, !noalias !971
  %.sroa.99.0..sroa_idx.i = getelementptr inbounds nuw i8, ptr %2, i64 48
  store ptr @.str.22, ptr %.sroa.99.0..sroa_idx.i, align 8, !tbaa !970, !noalias !971
  %.sroa.1010.0..sroa_idx.i = getelementptr inbounds nuw i8, ptr %2, i64 56
  store ptr @.str.23, ptr %.sroa.1010.0..sroa_idx.i, align 8, !tbaa !970, !noalias !971
  %.sroa.1111.0..sroa_idx.i = getelementptr inbounds nuw i8, ptr %2, i64 64
  store ptr @.str.24, ptr %.sroa.1111.0..sroa_idx.i, align 8, !tbaa !970, !noalias !971
  %.sroa.1212.0..sroa_idx.i = getelementptr inbounds nuw i8, ptr %2, i64 72
  store ptr @.str.25, ptr %.sroa.1212.0..sroa_idx.i, align 8, !tbaa !970, !noalias !971
  %.sroa.1313.0..sroa_idx.i = getelementptr inbounds nuw i8, ptr %2, i64 80
  store ptr @.str.26, ptr %.sroa.1313.0..sroa_idx.i, align 8, !tbaa !970, !noalias !971
  %.sroa.1414.0..sroa_idx.i = getelementptr inbounds nuw i8, ptr %2, i64 88
  store ptr @.str.27, ptr %.sroa.1414.0..sroa_idx.i, align 8, !tbaa !970, !noalias !971
  %.sroa.1515.0..sroa_idx.i = getelementptr inbounds nuw i8, ptr %2, i64 96
  store ptr @.str.28, ptr %.sroa.1515.0..sroa_idx.i, align 8, !tbaa !970, !noalias !971
  %.sroa.1616.0..sroa_idx.i = getelementptr inbounds nuw i8, ptr %2, i64 104
  store ptr @.str.29, ptr %.sroa.1616.0..sroa_idx.i, align 8, !tbaa !970, !noalias !971
  %.sroa.1717.0..sroa_idx.i = getelementptr inbounds nuw i8, ptr %2, i64 112
  store ptr @.str.30, ptr %.sroa.1717.0..sroa_idx.i, align 8, !tbaa !970, !noalias !971
  %.sroa.18.0..sroa_idx.i = getelementptr inbounds nuw i8, ptr %2, i64 120
  store ptr @.str.31, ptr %.sroa.18.0..sroa_idx.i, align 8, !tbaa !970, !noalias !971
  %.sroa.19.0..sroa_idx.i = getelementptr inbounds nuw i8, ptr %2, i64 128
  store ptr @.str.32, ptr %.sroa.19.0..sroa_idx.i, align 8, !tbaa !970, !noalias !971
  call void @_ZN6duckdb16TextTreeRenderer8ToStringB5cxx11ERKNS_8PipelineE(ptr dead_on_unwind nonnull writable sret(%"class.std::__cxx11::basic_string") align 8 %3, ptr noundef nonnull align 8 dereferenceable(136) %2, ptr noundef nonnull align 8 dereferenceable(224) %0)
  call void @llvm.lifetime.end.p0(i64 136, ptr nonnull %2) #35, !noalias !971
  invoke void @_ZN6duckdb7Printer5PrintERKNSt7__cxx1112basic_stringIcSt11char_traitsIcESaIcEEE(ptr noundef nonnull align 8 dereferenceable(32) %3)
          to label %5 unwind label %12

5:                                                ; preds = %1
  %6 = load ptr, ptr %3, align 8, !tbaa !61
  %7 = getelementptr inbounds nuw i8, ptr %3, i64 16
  %8 = icmp eq ptr %6, %7
  br i1 %8, label %_ZNKSt7__cxx1112basic_stringIcSt11char_traitsIcESaIcEE11_M_is_localEv.exit.thread.i.i, label %_ZNKSt7__cxx1112basic_stringIcSt11char_traitsIcESaIcEE11_M_is_localEv.exit.i.i

_ZNKSt7__cxx1112basic_stringIcSt11char_traitsIcESaIcEE11_M_is_localEv.exit.thread.i.i: ; preds = %5
  %9 = getelementptr inbounds nuw i8, ptr %3, i64 8
  %10 = load i64, ptr %9, align 8, !tbaa !65
  %11 = icmp ult i64 %10, 16
  call void @llvm.assume(i1 %11)
  br label %_ZNSt7__cxx1112basic_stringIcSt11char_traitsIcESaIcEED2Ev.exit

_ZNKSt7__cxx1112basic_stringIcSt11char_traitsIcESaIcEE11_M_is_localEv.exit.i.i: ; preds = %5
  call void @_ZdlPv(ptr noundef %6) #37
  br label %_ZNSt7__cxx1112basic_stringIcSt11char_traitsIcESaIcEED2Ev.exit

_ZNSt7__cxx1112basic_stringIcSt11char_traitsIcESaIcEED2Ev.exit: ; preds = %_ZNKSt7__cxx1112basic_stringIcSt11char_traitsIcESaIcEE11_M_is_localEv.exit.thread.i.i, %_ZNKSt7__cxx1112basic_stringIcSt11char_traitsIcESaIcEE11_M_is_localEv.exit.i.i
  call void @llvm.lifetime.end.p0(i64 32, ptr nonnull %3) #35
  ret void

12:                                               ; preds = %1
  %13 = landingpad { ptr, i32 }
          cleanup
  %14 = load ptr, ptr %3, align 8, !tbaa !61
  %15 = getelementptr inbounds nuw i8, ptr %3, i64 16
  %16 = icmp eq ptr %14, %15
  br i1 %16, label %_ZNKSt7__cxx1112basic_stringIcSt11char_traitsIcESaIcEE11_M_is_localEv.exit.thread.i.i3, label %_ZNKSt7__cxx1112basic_stringIcSt11char_traitsIcESaIcEE11_M_is_localEv.exit.i.i2

_ZNKSt7__cxx1112basic_stringIcSt11char_traitsIcESaIcEE11_M_is_localEv.exit.thread.i.i3: ; preds = %12
  %17 = getelementptr inbounds nuw i8, ptr %3, i64 8
  %18 = load i64, ptr %17, align 8, !tbaa !65
  %19 = icmp ult i64 %18, 16
  call void @llvm.assume(i1 %19)
  br label %_ZNSt7__cxx1112basic_stringIcSt11char_traitsIcESaIcEED2Ev.exit4

_ZNKSt7__cxx1112basic_stringIcSt11char_traitsIcESaIcEE11_M_is_localEv.exit.i.i2: ; preds = %12
  call void @_ZdlPv(ptr noundef %14) #37
  br label %_ZNSt7__cxx1112basic_stringIcSt11char_traitsIcESaIcEED2Ev.exit4

_ZNSt7__cxx1112basic_stringIcSt11char_traitsIcESaIcEED2Ev.exit4: ; preds = %_ZNKSt7__cxx1112basic_stringIcSt11char_traitsIcESaIcEE11_M_is_localEv.exit.thread.i.i3, %_ZNKSt7__cxx1112basic_stringIcSt11char_traitsIcESaIcEE11_M_is_localEv.exit.i.i2
  call void @llvm.lifetime.end.p0(i64 32, ptr nonnull %3) #35
  resume { ptr, i32 } %13
}